target datalayout = "e-m:e-p270:32:32-p271:32:32-p272:64:64-i64:64-i128:128-f80:128-n8:16:32:64-S128"
target triple = "x86_64-pc-linux-gnu"

%union.anon = type { i16 }

@VP8LConvertBGRAToRGB = hidden global ptr null, align 8
@VP8LConvertBGRAToRGBA = hidden global ptr null, align 8
@WebPApplyAlphaMultiply = external global ptr, align 8
@VP8LConvertBGRAToBGR = hidden global ptr null, align 8
@VP8LConvertBGRAToRGBA4444 = hidden global ptr null, align 8
@WebPApplyAlphaMultiply4444 = external global ptr, align 8
@VP8LConvertBGRAToRGB565 = hidden global ptr null, align 8
@is_big_endian.tmp = internal constant %union.anon { i16 1 }, align 2

; Function Attrs: inlinehint nounwind uwtable
define internal void @WebPUint32ToMem(ptr noundef %0, i32 noundef %1) #2 {
  %3 = alloca ptr, align 8
  %4 = alloca i32, align 4
  store ptr %0, ptr %3, align 8, !tbaa !21
  store i32 %1, ptr %4, align 4, !tbaa !8
  %5 = load ptr, ptr %3, align 8, !tbaa !21
  call void @llvm.memcpy.p0.p0.i64(ptr align 1 %5, ptr align 4 %4, i64 4, i1 false)
  ret void
}

; Function Attrs: inlinehint nounwind uwtable
define internal i32 @BSwap32(i32 noundef %0) #2 {
  %2 = alloca i32, align 4
  store i32 %0, ptr %2, align 4, !tbaa !8
  %3 = load i32, ptr %2, align 4, !tbaa !8
  %4 = call i32 @llvm.bswap.i32(i32 %3)
  ret i32 %4
}

; Function Attrs: nounwind uwtable
define internal i32 @is_big_endian() #0 {
  %1 = load i8, ptr @is_big_endian.tmp, align 2, !tbaa !13
  %2 = zext i8 %1 to i32
  %3 = icmp ne i32 %2, 1
  %4 = zext i1 %3 to i32
  ret i32 %4
}

; Function Attrs: nounwind uwtable
define internal void @CopyOrSwap(ptr noalias noundef %0, i32 noundef %1, ptr noalias noundef %2, i32 noundef %3) #0 {
  %5 = alloca ptr, align 8
  %6 = alloca i32, align 4
  %7 = alloca ptr, align 8
  %8 = alloca i32, align 4
  %9 = alloca ptr, align 8
  %10 = alloca i32, align 4
  store ptr %0, ptr %5, align 8, !tbaa !3
  store i32 %1, ptr %6, align 4, !tbaa !8
  store ptr %2, ptr %7, align 8, !tbaa !21
  store i32 %3, ptr %8, align 4, !tbaa !8
  %11 = call i32 @is_big_endian()
  %12 = load i32, ptr %8, align 4, !tbaa !8
  %13 = icmp eq i32 %11, %12
  br i1 %13, label %14, label %33

14:                                               ; preds = %4
  call void @llvm.lifetime.start.p0(i64 8, ptr %9) #8
  %15 = load ptr, ptr %5, align 8, !tbaa !3
  %16 = load i32, ptr %6, align 4, !tbaa !8
  %17 = sext i32 %16 to i64
  %18 = getelementptr inbounds i32, ptr %15, i64 %17
  store ptr %18, ptr %9, align 8, !tbaa !3
  br label %19

19:                                               ; preds = %23, %14
  %20 = load ptr, ptr %5, align 8, !tbaa !3
  %21 = load ptr, ptr %9, align 8, !tbaa !3
  %22 = icmp ult ptr %20, %21
  br i1 %22, label %23, label %32

23:                                               ; preds = %19
  call void @llvm.lifetime.start.p0(i64 4, ptr %10) #8
  %24 = load ptr, ptr %5, align 8, !tbaa !3
  %25 = getelementptr inbounds nuw i32, ptr %24, i32 1
  store ptr %25, ptr %5, align 8, !tbaa !3
  %26 = load i32, ptr %24, align 4, !tbaa !8
  store i32 %26, ptr %10, align 4, !tbaa !8
  %27 = load ptr, ptr %7, align 8, !tbaa !21
  %28 = load i32, ptr %10, align 4, !tbaa !8
  %29 = call i32 @BSwap32(i32 noundef %28)
  call void @WebPUint32ToMem(ptr noundef %27, i32 noundef %29)
  %30 = load ptr, ptr %7, align 8, !tbaa !21
  %31 = getelementptr inbounds nuw i8, ptr %30, i64 4
  store ptr %31, ptr %7, align 8, !tbaa !21
  call void @llvm.lifetime.end.p0(i64 4, ptr %10) #8
  br label %19, !llvm.loop !42

32:                                               ; preds = %19
  call void @llvm.lifetime.end.p0(i64 8, ptr %9) #8
  br label %39

33:                                               ; preds = %4
  %34 = load ptr, ptr %7, align 8, !tbaa !21
  %35 = load ptr, ptr %5, align 8, !tbaa !3
  %36 = load i32, ptr %6, align 4, !tbaa !8
  %37 = sext i32 %36 to i64
  %38 = mul i64 %37, 4
  call void @llvm.memcpy.p0.p0.i64(ptr align 1 %34, ptr align 4 %35, i64 %38, i1 false)
  br label %39

39:                                               ; preds = %33, %32
  ret void
}

; Function Attrs: nounwind uwtable
define hidden void @VP8LConvertFromBGRA(ptr noundef %0, i32 noundef %1, i32 noundef %2, ptr noundef %3) #0 {
  %5 = alloca ptr, align 8
  %6 = alloca i32, align 4
  %7 = alloca i32, align 4
  %8 = alloca ptr, align 8
  store ptr %0, ptr %5, align 8, !tbaa !3
  store i32 %1, ptr %6, align 4, !tbaa !8
  store i32 %2, ptr %7, align 4, !tbaa !8
  store ptr %3, ptr %8, align 8, !tbaa !21
  %9 = load i32, ptr %7, align 4, !tbaa !8
  switch i32 %9, label %73 [
    i32 0, label %10
    i32 1, label %15
    i32 7, label %20
    i32 2, label %28
    i32 3, label %33
    i32 8, label %37
    i32 4, label %44
    i32 9, label %48
    i32 5, label %55
    i32 10, label %60
    i32 6, label %68
  ]

10:                                               ; preds = %4
  %11 = load ptr, ptr @VP8LConvertBGRAToRGB, align 8, !tbaa !12
  %12 = load ptr, ptr %5, align 8, !tbaa !3
  %13 = load i32, ptr %6, align 4, !tbaa !8
  %14 = load ptr, ptr %8, align 8, !tbaa !21
  call void %11(ptr noundef %12, i32 noundef %13, ptr noundef %14)
  br label %74

15:                                               ; preds = %4
  %16 = load ptr, ptr @VP8LConvertBGRAToRGBA, align 8, !tbaa !12
  %17 = load ptr, ptr %5, align 8, !tbaa !3
  %18 = load i32, ptr %6, align 4, !tbaa !8
  %19 = load ptr, ptr %8, align 8, !tbaa !21
  call void %16(ptr noundef %17, i32 noundef %18, ptr noundef %19)
  br label %74

20:                                               ; preds = %4
  %21 = load ptr, ptr @VP8LConvertBGRAToRGBA, align 8, !tbaa !12
  %22 = load ptr, ptr %5, align 8, !tbaa !3
  %23 = load i32, ptr %6, align 4, !tbaa !8
  %24 = load ptr, ptr %8, align 8, !tbaa !21
  call void %21(ptr noundef %22, i32 noundef %23, ptr noundef %24)
  %25 = load ptr, ptr @WebPApplyAlphaMultiply, align 8, !tbaa !12
  %26 = load ptr, ptr %8, align 8, !tbaa !21
  %27 = load i32, ptr %6, align 4, !tbaa !8
  call void %25(ptr noundef %26, i32 noundef 0, i32 noundef %27, i32 noundef 1, i32 noundef 0)
  br label %74

28:                                               ; preds = %4
  %29 = load ptr, ptr @VP8LConvertBGRAToBGR, align 8, !tbaa !12
  %30 = load ptr, ptr %5, align 8, !tbaa !3
  %31 = load i32, ptr %6, align 4, !tbaa !8
  %32 = load ptr, ptr %8, align 8, !tbaa !21
  call void %29(ptr noundef %30, i32 noundef %31, ptr noundef %32)
  br label %74

33:                                               ; preds = %4
  %34 = load ptr, ptr %5, align 8, !tbaa !3
  %35 = load i32, ptr %6, align 4, !tbaa !8
  %36 = load ptr, ptr %8, align 8, !tbaa !21
  call void @CopyOrSwap(ptr noundef %34, i32 noundef %35, ptr noundef %36, i32 noundef 1)
  br label %74

37:                                               ; preds = %4
  %38 = load ptr, ptr %5, align 8, !tbaa !3
  %39 = load i32, ptr %6, align 4, !tbaa !8
  %40 = load ptr, ptr %8, align 8, !tbaa !21
  call void @CopyOrSwap(ptr noundef %38, i32 noundef %39, ptr noundef %40, i32 noundef 1)
  %41 = load ptr, ptr @WebPApplyAlphaMultiply, align 8, !tbaa !12
  %42 = load ptr, ptr %8, align 8, !tbaa !21
  %43 = load i32, ptr %6, align 4, !tbaa !8
  call void %41(ptr noundef %42, i32 noundef 0, i32 noundef %43, i32 noundef 1, i32 noundef 0)
  br label %74

44:                                               ; preds = %4
  %45 = load ptr, ptr %5, align 8, !tbaa !3
  %46 = load i32, ptr %6, align 4, !tbaa !8
  %47 = load ptr, ptr %8, align 8, !tbaa !21
  call void @CopyOrSwap(ptr noundef %45, i32 noundef %46, ptr noundef %47, i32 noundef 0)
  br label %74

48:                                               ; preds = %4
  %49 = load ptr, ptr %5, align 8, !tbaa !3
  %50 = load i32, ptr %6, align 4, !tbaa !8
  %51 = load ptr, ptr %8, align 8, !tbaa !21
  call void @CopyOrSwap(ptr noundef %49, i32 noundef %50, ptr noundef %51, i32 noundef 0)
  %52 = load ptr, ptr @WebPApplyAlphaMultiply, align 8, !tbaa !12
  %53 = load ptr, ptr %8, align 8, !tbaa !21
  %54 = load i32, ptr %6, align 4, !tbaa !8
  call void %52(ptr noundef %53, i32 noundef 1, i32 noundef %54, i32 noundef 1, i32 noundef 0)
  br label %74

55:                                               ; preds = %4
  %56 = load ptr, ptr @VP8LConvertBGRAToRGBA4444, align 8, !tbaa !12
  %57 = load ptr, ptr %5, align 8, !tbaa !3
  %58 = load i32, ptr %6, align 4, !tbaa !8
  %59 = load ptr, ptr %8, align 8, !tbaa !21
  call void %56(ptr noundef %57, i32 noundef %58, ptr noundef %59)
  br label %74

60:                                               ; preds = %4
  %61 = load ptr, ptr @VP8LConvertBGRAToRGBA4444, align 8, !tbaa !12
  %62 = load ptr, ptr %5, align 8, !tbaa !3
  %63 = load i32, ptr %6, align 4, !tbaa !8
  %64 = load ptr, ptr %8, align 8, !tbaa !21
  call void %61(ptr noundef %62, i32 noundef %63, ptr noundef %64)
  %65 = load ptr, ptr @WebPApplyAlphaMultiply4444, align 8, !tbaa !12
  %66 = load ptr, ptr %8, align 8, !tbaa !21
  %67 = load i32, ptr %6, align 4, !tbaa !8
  call void %65(ptr noundef %66, i32 noundef %67, i32 noundef 1, i32 noundef 0)
  br label %74

68:                                               ; preds = %4
  %69 = load ptr, ptr @VP8LConvertBGRAToRGB565, align 8, !tbaa !12
  %70 = load ptr, ptr %5, align 8, !tbaa !3
  %71 = load i32, ptr %6, align 4, !tbaa !8
  %72 = load ptr, ptr %8, align 8, !tbaa !21
  call void %69(ptr noundef %70, i32 noundef %71, ptr noundef %72)
  br label %74

73:                                               ; preds = %4
  br label %74

74:                                               ; preds = %73, %68, %60, %55, %48, %44, %37, %33, %28, %20, %15, %10
  ret void
}