; Function Attrs: nounwind uwtable
define hidden void @VP8LConvertFromBGRA(ptr noundef %0, i32 noundef %1, i32 noundef %2, ptr noundef %3) local_unnamed_addr #3 {
  switch i32 %2, label %CopyOrSwap.exit [
    i32 0, label %5
    i32 1, label %7
    i32 7, label %9
    i32 2, label %12
    i32 3, label %14
    i32 8, label %17
    i32 4, label %21
    i32 9, label %30
    i32 5, label %40
    i32 10, label %42
    i32 6, label %45
  ]

5:                                                ; preds = %4
  %6 = load ptr, ptr @VP8LConvertBGRAToRGB, align 8, !tbaa !23
  tail call void %6(ptr noundef %0, i32 noundef %1, ptr noundef %3) #12
  br label %CopyOrSwap.exit

7:                                                ; preds = %4
  %8 = load ptr, ptr @VP8LConvertBGRAToRGBA, align 8, !tbaa !23
  tail call void %8(ptr noundef %0, i32 noundef %1, ptr noundef %3) #12
  br label %CopyOrSwap.exit

9:                                                ; preds = %4
  %10 = load ptr, ptr @VP8LConvertBGRAToRGBA, align 8, !tbaa !23
  tail call void %10(ptr noundef %0, i32 noundef %1, ptr noundef %3) #12
  %11 = load ptr, ptr @WebPApplyAlphaMultiply, align 8, !tbaa !23
  tail call void %11(ptr noundef %3, i32 noundef 0, i32 noundef %1, i32 noundef 1, i32 noundef 0) #12
  br label %CopyOrSwap.exit

12:                                               ; preds = %4
  %13 = load ptr, ptr @VP8LConvertBGRAToBGR, align 8, !tbaa !23
  tail call void %13(ptr noundef %0, i32 noundef %1, ptr noundef %3) #12
  br label %CopyOrSwap.exit

14:                                               ; preds = %4
  %15 = sext i32 %1 to i64
  %16 = shl nsw i64 %15, 2
  tail call void @llvm.memcpy.p0.p0.i64(ptr align 1 %3, ptr readonly align 4 %0, i64 %16, i1 false), !alias.scope !47
  br label %CopyOrSwap.exit

17:                                               ; preds = %4
  %18 = sext i32 %1 to i64
  %19 = shl nsw i64 %18, 2
  tail call void @llvm.memcpy.p0.p0.i64(ptr align 1 %3, ptr readonly align 4 %0, i64 %19, i1 false), !alias.scope !51
  %20 = load ptr, ptr @WebPApplyAlphaMultiply, align 8, !tbaa !23
  tail call void %20(ptr noundef %3, i32 noundef 0, i32 noundef %1, i32 noundef 1, i32 noundef 0) #12
  br label %CopyOrSwap.exit

21:                                               ; preds = %4
  tail call void @llvm.experimental.noalias.scope.decl(metadata !55)
  tail call void @llvm.experimental.noalias.scope.decl(metadata !58)
  %22 = sext i32 %1 to i64
  %23 = getelementptr inbounds i32, ptr %0, i64 %22
  %24 = icmp sgt i32 %1, 0
  br i1 %24, label %.lr.ph.i, label %CopyOrSwap.exit

.lr.ph.i:                                         ; preds = %21, %.lr.ph.i
  %.013.i = phi ptr [ %25, %.lr.ph.i ], [ %0, %21 ]
  %.01112.i = phi ptr [ %28, %.lr.ph.i ], [ %3, %21 ]
  %25 = getelementptr inbounds nuw i8, ptr %.013.i, i64 4
  %26 = load i32, ptr %.013.i, align 4, !tbaa !3, !alias.scope !55, !noalias !58
  %27 = tail call noundef i32 @llvm.bswap.i32(i32 %26)
  store i32 %27, ptr %.01112.i, align 1, !alias.scope !58, !noalias !55
  %28 = getelementptr inbounds nuw i8, ptr %.01112.i, i64 4
  %29 = icmp ult ptr %25, %23
  br i1 %29, label %.lr.ph.i, label %CopyOrSwap.exit, !llvm.loop !60

30:                                               ; preds = %4
  tail call void @llvm.experimental.noalias.scope.decl(metadata !61)
  tail call void @llvm.experimental.noalias.scope.decl(metadata !64)
  %31 = sext i32 %1 to i64
  %32 = getelementptr inbounds i32, ptr %0, i64 %31
  %33 = icmp sgt i32 %1, 0
  br i1 %33, label %.lr.ph.i41, label %CopyOrSwap.exit44

.lr.ph.i41:                                       ; preds = %30, %.lr.ph.i41
  %.013.i42 = phi ptr [ %34, %.lr.ph.i41 ], [ %0, %30 ]
  %.01112.i43 = phi ptr [ %37, %.lr.ph.i41 ], [ %3, %30 ]
  %34 = getelementptr inbounds nuw i8, ptr %.013.i42, i64 4
  %35 = load i32, ptr %.013.i42, align 4, !tbaa !3, !alias.scope !61, !noalias !64
  %36 = tail call noundef i32 @llvm.bswap.i32(i32 %35)
  store i32 %36, ptr %.01112.i43, align 1, !alias.scope !64, !noalias !61
  %37 = getelementptr inbounds nuw i8, ptr %.01112.i43, i64 4
  %38 = icmp ult ptr %34, %32
  br i1 %38, label %.lr.ph.i41, label %CopyOrSwap.exit44, !llvm.loop !60

CopyOrSwap.exit44:                                ; preds = %.lr.ph.i41, %30
  %39 = load ptr, ptr @WebPApplyAlphaMultiply, align 8, !tbaa !23
  tail call void %39(ptr noundef %3, i32 noundef 1, i32 noundef %1, i32 noundef 1, i32 noundef 0) #12
  br label %CopyOrSwap.exit

40:                                               ; preds = %4
  %41 = load ptr, ptr @VP8LConvertBGRAToRGBA4444, align 8, !tbaa !23
  tail call void %41(ptr noundef %0, i32 noundef %1, ptr noundef %3) #12
  br label %CopyOrSwap.exit

42:                                               ; preds = %4
  %43 = load ptr, ptr @VP8LConvertBGRAToRGBA4444, align 8, !tbaa !23
  tail call void %43(ptr noundef %0, i32 noundef %1, ptr noundef %3) #12
  %44 = load ptr, ptr @WebPApplyAlphaMultiply4444, align 8, !tbaa !23
  tail call void %44(ptr noundef %3, i32 noundef %1, i32 noundef 1, i32 noundef 0) #12
  br label %CopyOrSwap.exit

45:                                               ; preds = %4
  %46 = load ptr, ptr @VP8LConvertBGRAToRGB565, align 8, !tbaa !23
  tail call void %46(ptr noundef %0, i32 noundef %1, ptr noundef %3) #12
  br label %CopyOrSwap.exit

CopyOrSwap.exit:                                  ; preds = %.lr.ph.i, %21, %4, %45, %42, %40, %CopyOrSwap.exit44, %17, %14, %12, %9, %7, %5
  ret void
}